#include <math.h>
#include <stdio.h>
#include <stdlib.h>
#include <string.h>
#include <iostream>
using namespace std;

int main()
{
	while(cin)
	{
		char str[11]={'\0'};
		char substr[4]={'\0'};
		char ansstr[14]={'\0'};
		char cmax=0;
		int point=0;
		cin>>str;
		cin>>substr;
		int length=strlen(str);
		for(int i=0;i<length;i++)
		{
			if(str[i]>cmax)
			{
				cmax=str[i];
				point=i;
			}
		}
		for(int i=0;i<point+1;i++)
			cout<<str[i];
			//ansstr[i]=str[i];
		//for(int i=point+1;i<point+4;i++)
			//ansstr[i]=substr[i-point-1];
		cout<<substr;
		for(int j=point+1;j<length;j++)
			cout<<str[j];
		cout<<endl; 
	}
	return 0;
}